; Function Attrs: mustprogress uwtable
define void @_ZN3gmx19DoubleOptionStorage14setScaleFactorEd(ptr noundef nonnull align 8 captures(none) dereferenceable(232) %0, double noundef %1) local_unnamed_addr #2 align 2 {
  %3 = fcmp ogt double %1, 0.000000e+00
  br i1 %3, label %5, label %4

4:                                                ; preds = %2
  tail call void @_ZN3gmx8internal13assertHandlerEPKcS2_S2_S2_i(ptr noundef nonnull @.str.28, ptr noundef nonnull @.str.29, ptr noundef nonnull @"__PRETTY_FUNCTION__._ZZN3gmx19DoubleOptionStorage14setScaleFactorEdENK3$_0clEv", ptr noundef nonnull @.str.6, i32 noundef 304) #31
  unreachable

5:                                                ; preds = %2
  %6 = getelementptr inbounds nuw i8, ptr %0, i64 72
  %7 = load i64, ptr %6, align 8, !tbaa !78
  %8 = and i64 %7, 2
  %.not = icmp eq i64 %8, 0
  br i1 %.not, label %9, label %.loopexit

9:                                                ; preds = %5
  %10 = getelementptr inbounds nuw i8, ptr %0, i64 224
  %11 = load double, ptr %10, align 8, !tbaa !170
  %12 = fdiv double %1, %11
  %13 = getelementptr inbounds nuw i8, ptr %0, i64 128
  %14 = load ptr, ptr %13, align 8, !tbaa !177
  %15 = load ptr, ptr %14, align 8, !tbaa !27
  %16 = getelementptr inbounds nuw i8, ptr %15, i64 24
  %17 = load ptr, ptr %16, align 8
  %18 = tail call { ptr, ptr } %17(ptr noundef nonnull align 8 dereferenceable(8) %14)
  %19 = extractvalue { ptr, ptr } %18, 0
  %20 = extractvalue { ptr, ptr } %18, 1
  %.not1415 = icmp eq ptr %19, %20
  br i1 %.not1415, label %.loopexit, label %.lr.ph

.lr.ph:                                           ; preds = %9, %.lr.ph
  %.sroa.0.016 = phi ptr [ %23, %.lr.ph ], [ %19, %9 ]
  %21 = load double, ptr %.sroa.0.016, align 8, !tbaa !171
  %22 = fmul double %12, %21
  store double %22, ptr %.sroa.0.016, align 8, !tbaa !171
  %23 = getelementptr inbounds nuw i8, ptr %.sroa.0.016, i64 8
  %.not14 = icmp eq ptr %23, %20
  br i1 %.not14, label %.loopexit, label %.lr.ph

.loopexit:                                        ; preds = %.lr.ph, %9, %5
  %24 = getelementptr inbounds nuw i8, ptr %0, i64 224
  store double %1, ptr %24, align 8, !tbaa !170
  ret void
}